target datalayout = "e-m:e-p270:32:32-p271:32:32-p272:64:64-i64:64-i128:128-f80:128-n8:16:32:64-S128"
target triple = "x86_64-pc-linux-gnu"

%struct.crypto_ex_data_st = type { ptr, ptr }
%struct.x509_store_ctx_st = type { ptr, ptr, ptr, ptr, ptr, ptr, ptr, ptr, ptr, ptr, ptr, ptr, ptr, ptr, ptr, ptr, ptr, ptr, i32, i32, ptr, ptr, i32, i32, i32, ptr, ptr, ptr, i32, i32, ptr, %struct.crypto_ex_data_st, ptr, i32, ptr, ptr, ptr }
%struct.x509_object_st = type { i32, %union.anon }
%union.anon = type { ptr }

; Function Attrs: nounwind uwtable
define i32 @X509_STORE_CTX_get1_issuer(ptr noundef %0, ptr noundef %1, ptr noundef %2) #0 {
  %4 = alloca i32, align 4
  %5 = alloca ptr, align 8
  %6 = alloca ptr, align 8
  %7 = alloca ptr, align 8
  %8 = alloca ptr, align 8
  %9 = alloca ptr, align 8
  %10 = alloca ptr, align 8
  %11 = alloca i32, align 4
  %12 = alloca i32, align 4
  store ptr %0, ptr %5, align 8, !tbaa !63
  store ptr %1, ptr %6, align 8, !tbaa !40
  store ptr %2, ptr %7, align 8, !tbaa !3
  call void @llvm.lifetime.start.p0(i64 8, ptr %8) #8
  %13 = load ptr, ptr %7, align 8, !tbaa !3
  %14 = call ptr @X509_get_issuer_name(ptr noundef %13)
  store ptr %14, ptr %8, align 8, !tbaa !65
  call void @llvm.lifetime.start.p0(i64 8, ptr %9) #8
  %15 = call ptr @X509_OBJECT_new()
  store ptr %15, ptr %9, align 8, !tbaa !66
  call void @llvm.lifetime.start.p0(i64 8, ptr %10) #8
  call void @llvm.lifetime.start.p0(i64 4, ptr %11) #8
  %16 = load ptr, ptr %5, align 8, !tbaa !63
  store ptr null, ptr %16, align 8, !tbaa !3
  %17 = load ptr, ptr %9, align 8, !tbaa !66
  %18 = icmp eq ptr %17, null
  br i1 %18, label %19, label %20

19:                                               ; preds = %3
  store i32 -1, ptr %4, align 4
  store i32 1, ptr %12, align 4
  br label %80

20:                                               ; preds = %3
  %21 = load ptr, ptr %6, align 8, !tbaa !40
  %22 = load ptr, ptr %8, align 8, !tbaa !65
  %23 = load ptr, ptr %9, align 8, !tbaa !66
  %24 = call i32 @ossl_x509_store_ctx_get_by_subject(ptr noundef %21, i32 noundef 1, ptr noundef %22, ptr noundef %23)
  store i32 %24, ptr %11, align 4, !tbaa !8
  %25 = load i32, ptr %11, align 4, !tbaa !8
  %26 = icmp ne i32 %25, 1
  br i1 %26, label %27, label %28

27:                                               ; preds = %20
  br label %77

28:                                               ; preds = %20
  %29 = load ptr, ptr %6, align 8, !tbaa !40
  %30 = getelementptr inbounds nuw %struct.x509_store_ctx_st, ptr %29, i32 0, i32 9
  %31 = load ptr, ptr %30, align 8, !tbaa !68
  %32 = load ptr, ptr %6, align 8, !tbaa !40
  %33 = load ptr, ptr %7, align 8, !tbaa !3
  %34 = load ptr, ptr %9, align 8, !tbaa !66
  %35 = getelementptr inbounds nuw %struct.x509_object_st, ptr %34, i32 0, i32 1
  %36 = load ptr, ptr %35, align 8, !tbaa !69
  %37 = call i32 %31(ptr noundef %32, ptr noundef %33, ptr noundef %36)
  %38 = icmp ne i32 %37, 0
  br i1 %38, label %39, label %54

39:                                               ; preds = %28
  %40 = load ptr, ptr %6, align 8, !tbaa !40
  %41 = load ptr, ptr %9, align 8, !tbaa !66
  %42 = getelementptr inbounds nuw %struct.x509_object_st, ptr %41, i32 0, i32 1
  %43 = load ptr, ptr %42, align 8, !tbaa !69
  %44 = call i32 @ossl_x509_check_cert_time(ptr noundef %40, ptr noundef %43, i32 noundef -1)
  %45 = icmp ne i32 %44, 0
  br i1 %45, label %46, label %53

46:                                               ; preds = %39
  %47 = load ptr, ptr %9, align 8, !tbaa !66
  %48 = getelementptr inbounds nuw %struct.x509_object_st, ptr %47, i32 0, i32 1
  %49 = load ptr, ptr %48, align 8, !tbaa !69
  %50 = load ptr, ptr %5, align 8, !tbaa !63
  store ptr %49, ptr %50, align 8, !tbaa !3
  %51 = load ptr, ptr %9, align 8, !tbaa !66
  %52 = getelementptr inbounds nuw %struct.x509_object_st, ptr %51, i32 0, i32 0
  store i32 0, ptr %52, align 8, !tbaa !70
  br label %77

53:                                               ; preds = %39
  br label %54

54:                                               ; preds = %53, %28
  store i32 -1, ptr %11, align 4, !tbaa !8
  %55 = load ptr, ptr %6, align 8, !tbaa !40
  %56 = load ptr, ptr %8, align 8, !tbaa !65
  %57 = call ptr @X509_STORE_CTX_get1_certs(ptr noundef %55, ptr noundef %56)
  store ptr %57, ptr %10, align 8, !tbaa !60
  %58 = icmp eq ptr %57, null
  br i1 %58, label %59, label %60

59:                                               ; preds = %54
  br label %77

60:                                               ; preds = %54
  %61 = load ptr, ptr %6, align 8, !tbaa !40
  %62 = load ptr, ptr %10, align 8, !tbaa !60
  %63 = load ptr, ptr %7, align 8, !tbaa !3
  %64 = call ptr @get0_best_issuer_sk(ptr noundef %61, i32 noundef 0, i32 noundef 0, ptr noundef %62, ptr noundef %63)
  %65 = load ptr, ptr %5, align 8, !tbaa !63
  store ptr %64, ptr %65, align 8, !tbaa !3
  store i32 0, ptr %11, align 4, !tbaa !8
  %66 = load ptr, ptr %5, align 8, !tbaa !63
  %67 = load ptr, ptr %66, align 8, !tbaa !3
  %68 = icmp ne ptr %67, null
  br i1 %68, label %69, label %75

69:                                               ; preds = %60
  %70 = load ptr, ptr %5, align 8, !tbaa !63
  %71 = load ptr, ptr %70, align 8, !tbaa !3
  %72 = call i32 @X509_up_ref(ptr noundef %71)
  %73 = icmp ne i32 %72, 0
  %74 = select i1 %73, i32 1, i32 -1
  store i32 %74, ptr %11, align 4, !tbaa !8
  br label %75

75:                                               ; preds = %69, %60
  %76 = load ptr, ptr %10, align 8, !tbaa !60
  call void @OSSL_STACK_OF_X509_free(ptr noundef %76)
  br label %77

77:                                               ; preds = %75, %59, %46, %27
  %78 = load ptr, ptr %9, align 8, !tbaa !66
  call void @X509_OBJECT_free(ptr noundef %78)
  %79 = load i32, ptr %11, align 4, !tbaa !8
  store i32 %79, ptr %4, align 4
  store i32 1, ptr %12, align 4
  br label %80

80:                                               ; preds = %77, %19
  call void @llvm.lifetime.end.p0(i64 4, ptr %11) #8
  call void @llvm.lifetime.end.p0(i64 8, ptr %10) #8
  call void @llvm.lifetime.end.p0(i64 8, ptr %9) #8
  call void @llvm.lifetime.end.p0(i64 8, ptr %8) #8
  %81 = load i32, ptr %4, align 4
  ret i32 %81
}