; Function Attrs: nounwind uwtable
define i32 @X509_STORE_CTX_get1_issuer(ptr noundef writeonly captures(none) initializes((0, 8)) %0, ptr noundef %1, ptr noundef %2) #0 {
  %4 = tail call ptr @X509_get_issuer_name(ptr noundef %2) #10
  %5 = tail call ptr @X509_OBJECT_new() #10
  store ptr null, ptr %0, align 8, !tbaa !90
  %6 = icmp eq ptr %5, null
  br i1 %6, label %30, label %7

7:                                                ; preds = %3
  %8 = tail call i32 @ossl_x509_store_ctx_get_by_subject(ptr noundef %1, i32 noundef 1, ptr noundef %4, ptr noundef nonnull %5) #10
  %.not = icmp eq i32 %8, 1
  br i1 %.not, label %9, label %29

9:                                                ; preds = %7
  %10 = getelementptr inbounds nuw i8, ptr %1, i64 72
  %11 = load ptr, ptr %10, align 8, !tbaa !91
  %12 = getelementptr inbounds nuw i8, ptr %5, i64 8
  %13 = load ptr, ptr %12, align 8, !tbaa !92
  %14 = tail call i32 %11(ptr noundef %1, ptr noundef %2, ptr noundef %13) #10
  %.not33 = icmp eq i32 %14, 0
  br i1 %.not33, label %20, label %15

15:                                               ; preds = %9
  %16 = load ptr, ptr %12, align 8, !tbaa !92
  %17 = tail call i32 @ossl_x509_check_cert_time(ptr noundef nonnull %1, ptr noundef %16, i32 noundef -1)
  %.not34 = icmp eq i32 %17, 0
  br i1 %.not34, label %20, label %18

18:                                               ; preds = %15
  %19 = load ptr, ptr %12, align 8, !tbaa !92
  store ptr %19, ptr %0, align 8, !tbaa !90
  store i32 0, ptr %5, align 8, !tbaa !93
  br label %29

20:                                               ; preds = %15, %9
  %21 = tail call ptr @X509_STORE_CTX_get1_certs(ptr noundef nonnull %1, ptr noundef %4) #10
  %22 = icmp eq ptr %21, null
  br i1 %22, label %29, label %23

23:                                               ; preds = %20
  %24 = tail call fastcc ptr @get0_best_issuer_sk(ptr noundef nonnull %1, i32 noundef 0, ptr noundef nonnull %21, ptr noundef %2)
  store ptr %24, ptr %0, align 8, !tbaa !90
  %.not35 = icmp eq ptr %24, null
  br i1 %.not35, label %28, label %25

25:                                               ; preds = %23
  %26 = tail call i32 @X509_up_ref(ptr noundef nonnull %24) #10
  %.not36 = icmp eq i32 %26, 0
  %27 = select i1 %.not36, i32 -1, i32 1
  br label %28

28:                                               ; preds = %25, %23
  %.1 = phi i32 [ %27, %25 ], [ 0, %23 ]
  tail call void @OSSL_STACK_OF_X509_free(ptr noundef nonnull %21) #10
  br label %29

29:                                               ; preds = %20, %7, %28, %18
  %.0 = phi i32 [ %8, %7 ], [ 1, %18 ], [ -1, %20 ], [ %.1, %28 ]
  tail call void @X509_OBJECT_free(ptr noundef nonnull %5) #10
  br label %30

30:                                               ; preds = %3, %29
  %.027 = phi i32 [ %.0, %29 ], [ -1, %3 ]
  ret i32 %.027
}